; Function Attrs: mustprogress uwtable
define void @_ZN6casadi11GenericTypeC2ERKNS_8FunctionE(ptr noundef nonnull align 8 dereferenceable(8) initializes((0, 8)) %0, ptr noundef nonnull readonly align 8 captures(none) dereferenceable(8) %1) unnamed_addr #3 align 2 personality ptr @__gxx_personality_v0 {
  store ptr null, ptr %0, align 8, !tbaa !180
  %3 = invoke noalias noundef nonnull dereferenceable(32) ptr @_Znwm(i64 noundef 32) #27
          to label %4 unwind label %10

4:                                                ; preds = %2
  %5 = getelementptr inbounds nuw i8, ptr %3, i64 8
  tail call void @llvm.memset.p0.i64(ptr noundef nonnull align 8 dereferenceable(16) %5, i8 0, i64 16, i1 false)
  store ptr getelementptr inbounds nuw inrange(-16, 48) (i8, ptr @_ZTVN6casadi19GenericTypeInternalILNS_6TypeIDE12ENS_8FunctionEEE, i64 16), ptr %3, align 8, !tbaa !3
  %6 = getelementptr inbounds nuw i8, ptr %3, i64 24
  %7 = load ptr, ptr %1, align 8, !tbaa !180
  store ptr %7, ptr %6, align 8, !tbaa !180
  invoke void @_ZN6casadi13GenericSharedINS_12SharedObjectENS_20SharedObjectInternalEE8count_upEv(ptr noundef nonnull align 8 dereferenceable(8) %6)
          to label %_ZN6casadi19GenericTypeInternalILNS_6TypeIDE12ENS_8FunctionEEC2ERKS2_.exit unwind label %.body

.body:                                            ; preds = %4
  %8 = landingpad { ptr, i32 }
          cleanup
  tail call void @_ZN6casadi21GenericSharedInternalINS_12SharedObjectENS_20SharedObjectInternalEED2Ev(ptr noundef nonnull align 8 dereferenceable(32) %3) #23
  tail call void @_ZdlPvm(ptr noundef nonnull %3, i64 noundef 32) #24
  br label %12

_ZN6casadi19GenericTypeInternalILNS_6TypeIDE12ENS_8FunctionEEC2ERKS2_.exit: ; preds = %4
  invoke void @_ZN6casadi13GenericSharedINS_12SharedObjectENS_20SharedObjectInternalEE3ownEPS2_(ptr noundef nonnull align 8 dereferenceable(8) %0, ptr noundef nonnull %3)
          to label %9 unwind label %10

9:                                                ; preds = %_ZN6casadi19GenericTypeInternalILNS_6TypeIDE12ENS_8FunctionEEC2ERKS2_.exit
  ret void

10:                                               ; preds = %_ZN6casadi19GenericTypeInternalILNS_6TypeIDE12ENS_8FunctionEEC2ERKS2_.exit, %2
  %11 = landingpad { ptr, i32 }
          cleanup
  br label %12

12:                                               ; preds = %.body, %10
  %.pn = phi { ptr, i32 } [ %11, %10 ], [ %8, %.body ]
  invoke void @_ZN6casadi13GenericSharedINS_12SharedObjectENS_20SharedObjectInternalEE10count_downEv(ptr noundef nonnull align 8 dereferenceable(8) %0)
          to label %_ZN6casadi13GenericSharedINS_12SharedObjectENS_20SharedObjectInternalEED2Ev.exit unwind label %13

13:                                               ; preds = %12
  %14 = landingpad { ptr, i32 }
          catch ptr null
  %15 = extractvalue { ptr, i32 } %14, 0
  tail call void @__clang_call_terminate(ptr %15) #25
  unreachable

_ZN6casadi13GenericSharedINS_12SharedObjectENS_20SharedObjectInternalEED2Ev.exit: ; preds = %12
  resume { ptr, i32 } %.pn
}